target datalayout = "e-m:e-p270:32:32-p271:32:32-p272:64:64-i64:64-i128:128-f80:128-n8:16:32:64-S128"
target triple = "x86_64-pc-linux-gnu"

@.str.50 = private unnamed_addr constant [16 x i8] c"core.splitindex\00", align 1

; Function Attrs: nounwind uwtable
define dso_local i32 @repo_config_get_split_index(ptr noundef %0) #0 {
  %2 = alloca i32, align 4
  %3 = alloca ptr, align 8
  %4 = alloca i32, align 4
  %5 = alloca i32, align 4
  store ptr %0, ptr %3, align 8, !tbaa !65
  call void @llvm.lifetime.start.p0(i64 4, ptr %4) #13
  %6 = load ptr, ptr %3, align 8, !tbaa !65
  %7 = call i32 @repo_config_get_maybe_bool(ptr noundef %6, ptr noundef @.str.50, ptr noundef %4)
  %8 = icmp ne i32 %7, 0
  br i1 %8, label %11, label %9

9:                                                ; preds = %1
  %10 = load i32, ptr %4, align 4, !tbaa !13
  store i32 %10, ptr %2, align 4
  store i32 1, ptr %5, align 4
  br label %12

11:                                               ; preds = %1
  store i32 -1, ptr %2, align 4
  store i32 1, ptr %5, align 4
  br label %12

12:                                               ; preds = %11, %9
  call void @llvm.lifetime.end.p0(i64 4, ptr %4) #13
  %13 = load i32, ptr %2, align 4
  ret i32 %13
}