; Function Attrs: nounwind uwtable
define dso_local i32 @repo_config_get_split_index(ptr noundef %0) local_unnamed_addr #0 {
  %2 = alloca i32, align 4
  call void @llvm.lifetime.start.p0(i64 4, ptr nonnull %2) #30
  %3 = call i32 @repo_config_get_maybe_bool(ptr noundef %0, ptr noundef nonnull @.str.50, ptr noundef nonnull %2)
  %.not = icmp eq i32 %3, 0
  %4 = load i32, ptr %2, align 4
  %.0 = select i1 %.not, i32 %4, i32 -1
  call void @llvm.lifetime.end.p0(i64 4, ptr nonnull %2) #30
  ret i32 %.0
}